; Function Attrs: mustprogress uwtable
define dso_local void @_ZN4Luau7CodeGen3X6418AssemblyBuilderX644cmovENS0_12ConditionX64ENS1_11RegisterX64ENS1_10OperandX64E(ptr noundef nonnull align 8 dereferenceable(252) %0, i8 noundef zeroext %1, i8 %2, i64 %3) local_unnamed_addr #0 align 2 {
  %5 = getelementptr inbounds nuw i8, ptr %0, i64 80
  %6 = load i8, ptr %5, align 8, !tbaa !14, !range !61, !noundef !62
  %7 = trunc nuw i8 %6 to i1
  br i1 %7, label %8, label %12

8:                                                ; preds = %4
  %9 = zext i8 %1 to i64
  %10 = getelementptr inbounds nuw [26 x ptr], ptr @_ZN4Luau7CodeGen3X64L20cmovTextForConditionE, i64 0, i64 %9
  %11 = load ptr, ptr %10, align 8, !tbaa !64
  %.sroa.352.0.insert.ext = zext i8 %2 to i64
  %.sroa.352.0.insert.shift = shl nuw nsw i64 %.sroa.352.0.insert.ext, 16
  %.sroa.251.0.insert.insert = or disjoint i64 %.sroa.352.0.insert.shift, 268468224
  tail call void @_ZN4Luau7CodeGen3X6418AssemblyBuilderX643logEPKcNS1_10OperandX64ES5_(ptr noundef nonnull align 8 dereferenceable(252) %0, ptr noundef %11, i64 %.sroa.251.0.insert.insert, i64 %3)
  br label %12

12:                                               ; preds = %8, %4
  %13 = and i8 %2, 7
  %14 = icmp eq i8 %13, 4
  %15 = icmp eq i8 %13, 1
  %16 = icmp ugt i8 %2, 31
  %17 = and i1 %16, %15
  %18 = or i1 %14, %17
  %19 = select i1 %18, i32 8, i32 0
  %20 = and i64 %3, 255
  %21 = icmp eq i64 %20, 2
  br i1 %21, label %22, label %27

22:                                               ; preds = %12
  %23 = lshr i8 %2, 6
  %24 = and i8 %23, 1
  %25 = trunc nuw nsw i32 %19 to i8
  %26 = or disjoint i8 %24, %25
  br label %40

27:                                               ; preds = %12
  %28 = lshr i8 %2, 4
  %29 = and i8 %28, 4
  %30 = zext nneg i8 %29 to i32
  %31 = trunc i64 %3 to i32
  %32 = lshr i32 %31, 13
  %33 = and i32 %32, 2
  %34 = or disjoint i32 %33, %30
  %35 = lshr i32 %31, 22
  %36 = and i32 %35, 1
  %37 = or disjoint i32 %34, %36
  %38 = or disjoint i32 %37, %19
  %39 = trunc nuw nsw i32 %38 to i8
  br label %40

40:                                               ; preds = %27, %22
  %.0.i = phi i8 [ %26, %22 ], [ %39, %27 ]
  %.not.i = icmp eq i8 %.0.i, 0
  br i1 %.not.i, label %_ZN4Luau7CodeGen3X6418AssemblyBuilderX648placeRexENS1_11RegisterX64ENS1_10OperandX64E.exit, label %41

41:                                               ; preds = %40
  %42 = or i8 %.0.i, 64
  %43 = getelementptr inbounds nuw i8, ptr %0, i64 232
  %44 = load ptr, ptr %43, align 8, !tbaa !51
  %45 = getelementptr inbounds nuw i8, ptr %44, i64 1
  store ptr %45, ptr %43, align 8, !tbaa !51
  store i8 %42, ptr %44, align 1, !tbaa !13
  br label %_ZN4Luau7CodeGen3X6418AssemblyBuilderX648placeRexENS1_11RegisterX64ENS1_10OperandX64E.exit

_ZN4Luau7CodeGen3X6418AssemblyBuilderX648placeRexENS1_11RegisterX64ENS1_10OperandX64E.exit: ; preds = %40, %41
  %46 = getelementptr inbounds nuw i8, ptr %0, i64 232
  %47 = load ptr, ptr %46, align 8, !tbaa !51
  %48 = getelementptr inbounds nuw i8, ptr %47, i64 1
  store ptr %48, ptr %46, align 8, !tbaa !51
  store i8 15, ptr %47, align 1, !tbaa !13
  %49 = zext i8 %1 to i64
  %50 = getelementptr inbounds nuw [26 x i8], ptr @_ZN4Luau7CodeGen3X64L16codeForConditionE, i64 0, i64 %49
  %51 = load i8, ptr %50, align 1, !tbaa !13
  %52 = or i8 %51, 64
  %53 = load ptr, ptr %46, align 8, !tbaa !51
  %54 = getelementptr inbounds nuw i8, ptr %53, i64 1
  store ptr %54, ptr %46, align 8, !tbaa !51
  store i8 %52, ptr %53, align 1, !tbaa !13
  %55 = lshr i8 %2, 3
  tail call void @_ZN4Luau7CodeGen3X6418AssemblyBuilderX6414placeModRegMemENS1_10OperandX64Ehi(ptr noundef nonnull align 8 dereferenceable(252) %0, i64 %3, i8 noundef zeroext %55, i32 noundef 0)
  %56 = getelementptr inbounds nuw i8, ptr %0, i64 248
  %57 = load i32, ptr %56, align 8, !tbaa !63
  %58 = add i32 %57, 1
  store i32 %58, ptr %56, align 8, !tbaa !63
  %59 = getelementptr inbounds nuw i8, ptr %0, i64 240
  %60 = load ptr, ptr %59, align 8, !tbaa !52
  %61 = load ptr, ptr %46, align 8, !tbaa !51
  %62 = ptrtoint ptr %60 to i64
  %63 = ptrtoint ptr %61 to i64
  %64 = sub i64 %62, %63
  %65 = and i64 %64, 4294967280
  %66 = icmp eq i64 %65, 0
  br i1 %66, label %67, label %_ZN4Luau7CodeGen3X6418AssemblyBuilderX646commitEv.exit

67:                                               ; preds = %_ZN4Luau7CodeGen3X6418AssemblyBuilderX648placeRexENS1_11RegisterX64ENS1_10OperandX64E.exit
  tail call void @_ZN4Luau7CodeGen3X6418AssemblyBuilderX646extendEv(ptr noundef nonnull align 8 dereferenceable(252) %0)
  br label %_ZN4Luau7CodeGen3X6418AssemblyBuilderX646commitEv.exit

_ZN4Luau7CodeGen3X6418AssemblyBuilderX646commitEv.exit: ; preds = %_ZN4Luau7CodeGen3X6418AssemblyBuilderX648placeRexENS1_11RegisterX64ENS1_10OperandX64E.exit, %67
  ret void
}